(lp0
VAfrican and African American Studies
p1
aVHuman Developmental and Regenerative Biology
p2
aVAnthropology
p3
aVHuman Evolutionary Biology
p4
aVApplied Mathematics
p5
aVIntegrative Biology
p6
aVAstrophysics
p7
aVLinguistics
p8
aVBiomedical Engineering
p9
aVMathematics
p10
aVChemical and Physical Biology
p11
aVMechanical Engineering
p12
aVChemistry
p13
aVMolecular and Cellular Biology
p14
aVChemistry and Physics
p15
aVMusic
p16
aVClassics
p17
aVNear Eastern Languages and Civilizations
p18
aVComparative Literature
p19
aVNeuroscience
p20
aVComputer Science
p21
aVPhilosophy
p22
aVEarth and Planetary Sciences
p23
aVPhysics
p24
aVEast Asian Studies
p25
aVPsychology
p26
aVEconomics
p27
aVComparative Study of Religion
p28
aVElectrical Engineering
p29
aVRomance Languages and Literatures
p30
aVEngineering Sciences
p31
aVSlavic Languages and Literatures
p32
aVEnglish
p33
aVSocial Studies
p34
aVEnvironmental Science and Engineering
p35
aVSociology
p36
aVEnvironmental Science and Public Policy
p37
aVSouth Asian Studies
p38
aVFolklore and Mythology
p39
aVSpecial Concentrations
p40
aVGermanic Languages and Literatures
p41
aVStatistics
p42
aVGovernment
p43
aVTheater, Dance, and Media
p44
aVHistory
p45
aVVisual and Environmental Studies
p46
aVHistory and Literature
p47
aVStudies of Women, Gender, and Sexuality
p48
aVHistory and Science
p49
aVHistory of Art and Architecture
p50
a.