(lp0
VPBHA&#39;s 1-2-1 Boston Refugee Youth Enrichment
p1
aVHarvard College Access Health
p2
aVHarvard College Act On A Dream Club
p3
aVAdvocating Success for Kids
p4
aVHarvard College Africa Business and Investment Club
p5
aVHarvard African Students Association
p6
aVHarvard College Albanian Students Association
p7
aVHarvard Undergraduate Alexander Hamilton Society
p8
aVHarvard College Alpha Omega
p9
aVPBHA&#39;S Alternative Spring Breaks
p10
aVPBHA&#39;s Harvard College Alzheimer&#39;s Buddies Program
p11
aVHarvard College Angling Club
p12
aVHarvard Anime Society
p13
aVHarvard College Anscombe Society
p14
aVHarvard College Applied Mathematics Society
p15
aVHarvard College Arab Review
p16
aVThe Harvard College Armenian Students Association
p17
aVHarvard Undergraduate Art Club
p18
aVHarvard-Radcliffe Asian American Association
p19
aVAsian American Brotherhood
p20
aVHarvard-Radcliffe Asian American Christian Fellowship
p21
aVHarvard Asian American Dance Troupe
p22
aVHarvard-Radcliffe Asian American Women&#39;s Association
p23
aVAsian Baptist Student Koinonia
p24
aVAsian Student Arts Project
p25
aVHarvard College Association for the Promotion of Interplanetary Expansion
p26
aVHarvard College Association for U.S. - China Relations
p27
aVAssociation of Black Harvard Women
p28
aVHarvard College Association of Practice and Learning of Yan Xin Life Science &amp; Technology
p29
aVPBHA&#39;s The Athena Program
p30
aVAustralian Undergraduate Society at Harvard College (AUS)
p31
aVBach Society Orchestra
p32
aVHarvard College Baha&#39;i Association
p33
aVHarvard Ballet Company
p34
aVHarvard Undergraduate Baltic Society
p35
aVHarvard College Baroque Chamber Orchestra
p36
aVHarvard Undergraduate Beekeepers
p37
aVPBHA&#39;s Best Buddies
p38
aVHarvard College Bhangra
p39
aVHarvard Undergraduate Bioethics Society
p40
aVHarvard College Biomedical Engineering Society (BMES)
p41
aVHarvard Undergraduate Biotechnology Association
p42
aVHarvard Black Men&#39;s Forum
p43
aVHarvard College Black Pre-Law Association
p44
aVHarvard Undergraduate Black Premedical Society
p45
aVHarvard Black Students Association
p46
aVBlack Community and Student Theater
p47
aVHarvard Undergraduate Blockchain Group (HUBG)
p48
aVHarvard Book Review
p49
aVPBHA&#39;s Boston Refugee Youth Enrichment Extension
p50
aVPBHA&#39;s Boston Refugee Youth Enrichment Afterschool
p51
aVPBHA&#39;s Boston Refugee Youth Enrichment Summer Program
p52
aVBrattle Street Chamber Players
p53
aVHarvard Undergraduate Brazilian Association
p54
aVHarvard Breakers Organization
p55
aVHarvard Undergraduate Bridge Club
p56
aVHarvard College British Club
p57
aVPBHA&#39;s Boston Refugee Youth Enrichment Teen Mentoring
p58
aVHarvard Bulgarian Club
p59
aVPBHA&#39;s Cambridge After-School Program
p60
aVPBHA&#39;s Cambridge Youth Enrichment Program
p61
aVCamp Kesem at Harvard College
p62
aVHarvard Canadian Club
p63
aVHarvard Cancer Society
p64
aVHarvard College Candela Dance Troupe
p65
aVHarvard Undergraduate Capital Partners and Equity Group
p66
aVHarvard Caribbean Club
p67
aVCatholic Student Association
p68
aVCollege Events Board
p69
aVHarvard Undergraduate Centrist Society
p70
aVHarvard-Radcliffe Chado Society
p71
aVPBHA&#39;s CHANCE
p72
aVHarvard Chemistry Club
p73
aVHarvard College Children&#39;s Stories
p74
aVHarvard College China Forum
p75
aVPBHA&#39;s Chinatown Adventure
p76
aVPBHA&#39;s Chinatown Afterschool Program
p77
aVPBHA&#39;s Chinatown Big Sibling Program
p78
aVPBHA&#39;s Chinatown Citizenship Program
p79
aVPBHA&#39;s Chinatown ESL Program
p80
aVPBHA&#39;s Chinatown Teen Mentoring
p81
aVHarvard College Chinese Music Ensemble
p82
aVHarvard-Radcliffe Chinese Students Association
p83
aVHarvard Christian Impact
p84
aVHarvard Undergraduate Christians for Israel
p85
aVChristians on Campus
p86
aVCircle of Women Harvard College
p87
aVCityStep
p88
aVPBHA&#39;s CIVICS
p89
aVHarvard Classical Club
p90
aVClimbing Wall
p91
aVHarvard College Bowl
p92
aVHarvard-Radcliffe Collegium Musicum
p93
aVColombian Students Association at Harvard College
p94
aVHarvard Community Garden
p95
aVHarvard College Community of Humanists, Atheists, and Agnostics
p96
aVHarvard Composers Association
p97
aVHarvard Computer Society
p98
aVConcilio Latino de Harvard
p99
aVPBHA&#39;s Connelly Center Youth Prison Tutoring Program
p100
aVConsent Advocates and Relationship Educators (CARE)
p101
aVHarvard College Conservation Society
p102
aVConstitutional Law Society
p103
aVHarvard College Consulting Group
p104
aVHarvard Undergraduate Consulting on Business and the Environment
p105
aVContact Peer Counseling
p106
aVCorcairdhearg: Harvard College Irish Dancers
p107
aVHarvard College Crimson Consulting Club
p108
aVCrimson Key Society
p109
aVCrimsonEMS
p110
aVCuban-American Undergraduate Student Association
p111
aVHarvard College Culinary Club
p112
aVHarvard College Cyber Club
p113
aVHarvard Undergraduate Dance Marathon
p114
aVPBHA&#39;s David Walker Scholars Program
p115
aVPBHA&#39;s Deaf Awareness Club
p116
aVHarvard Debate Council
p117
aVHarvard College Debating Union
p118
aVHarvard College Deepam
p119
aVThe Delphic/Bee Club
p120
aVHarvard Undergraduate Democracy Matters
p121
aVHarvard College Democrats
p122
aVHarvard Undergraduate Design Labs
p123
aVHarvard College Developers for Development
p124
aVHarvard College Development Think Tank
p125
aVDharma: Harvard&#39;s Hindu Students Association
p126
aVDigital Literacy Project
p127
aVThe Harvard Din &amp; Tonics
p128
aVHarvard College Disability Alliance
p129
aVDiversity Peer Educators
p130
aVDirecting through Recreation, Education, Adventure, and Mentoring
p131
aVDreamporte
p132
aVDrug and Alcohol Peer Advisors (DAPA)
p133
aVHarvard College Dutch Society
p134
aVHarvard Early Music Society
p135
aVEating Concerns Hotline and Outreach
p136
aVEcdysis
p137
aVHarvard Undergraduate Economics Association
p138
aVHarvard College Economics Review
p139
aVHarvard College Effective Altruism
p140
aVPBHA&#39;s Elderly 1-2-1
p141
aVHarvard College Electronic Music Collective
p142
aVEleganza
p143
aVHarvard College Engineering Society
p144
aVHarvard College Engineers Without Borders
p145
aVHarvard College Entertainment Society
p146
aVPBHA&#39;s Environmental Action Committee
p147
aVEpiscopal Students at Harvard College
p148
aVHarvard College Esports Association
p149
aVEuropean Business Group
p150
aVHarvard College European Society
p151
aVAn Evening with Champions
p152
aVPBHA&#39;s Experimentors
p153
aVExpressions Dance Company
p154
aVHarvard College Faith and Action
p155
aVFallen Angels
p156
aVHarvard College Fed Challenge
p157
aVFig. Magazine
p158
aVHarvard College Film Festival
p159
aVHarvard Undergraduate Filmmakers Association
p160
aVHarvard Financial Analysts Club
p161
aVHarvard College First Generation Student Union
p162
aVFirst-Year Musical
p163
aVFirst-Year Outdoor Program (FOP)
p164
aVHarvard University Flute Ensemble
p165
aVThe Food Lab for Kids @ Harvard College
p166
aVFood Literacy Project
p167
aVFoundation for International Medical Relief of Children - Harvard College
p168
aVHarvard College Francophone Society
p169
aVPBHA&#39;s Franklin After School Enrichment
p170
aVThe Franklin Fellowship
p171
aVPBHA&#39;s Franklin I-O Summer Program
p172
aVHarvard College French Club
p173
aVHarvard Friends of Chabad
p174
aVFriends of Project Sunshine
p175
aVHarvard College Friends of Scouting
p176
aVFuerza Latina
p177
aVFUSIAN
p178
aVGaongil: Harvard College Modern Korean Studies Society
p179
aVGap Year Harvard College
p180
aVGaysi Pride
p181
aVGender Inclusivity in Math
p182
aVHarvard College Geological Society
p183
aVHarvard College German Club
p184
aVHarvard-Radcliffe Gilbert &amp; Sullivan Players
p185
aVHarvard Glee Club
p186
aVHarvard Undergraduate Global Education Movement
p187
aVHarvard Undergraduate Global Health Forum
p188
aVHarvard Undergraduate Global Women&#39;s Empowerment
p189
aVGreen Medicine Initiative
p190
aVPBHA&#39;s Harvard Habitat for Humanity
p191
aVHackHarvardCollege
p192
aVHarvard College Half Asian People&#39;s Association
p193
aVHarvard Undergraduate Hallyu Club
p194
aVPBHA&#39;s HARMONY Mentoring
p195
aVPBHA&#39;s Harvard Artists for Alzheimer&#39;s
p196
aVHarvard Association Cultivating Inter-American Democracy
p197
aVHarvard College Coaches
p198
aVHarvard College Eritrean-Ethiopian Students Association
p199
aVHarvard College in Asia Program
p200
aVPBHA&#39;s Harvard College Youth Leadership Initiative
p201
aVHarvard Organization for Latin America
p202
aVPBHA&#39;s Harvard Square Homeless Shelter
p203
aVHarvard Student Agencies
p204
aVHarvard Undergraduate Studies in Education
p205
aVHarvard Undergraduate Union of Mixed Students
p206
aVHarvard Undergraduates Against Trafficking
p207
aVHarvard Undergraduates for Environmental Justice
p208
aVHarvard Undergraduates Raising Autism Awareness!
p209
aVHarvard University Band
p210
aVHarvard-Radcliffe Orchestra
p211
aVHasty Pudding Theatricals
p212
aVHarvard College Hawaii Club
p213
aVHarvard College Bisexual, Gay, Lesbian, Transgender, Queer &amp; Allied Students in the Sciences (HBASIS)
p214
aVHarvard College Health Advocacy Program
p215
aVHealth Leads
p216
aVHarvard College Health Policy Review
p217
aVHarvard College Healthcare Associates
p218
aVHealthPALs - Health Peer Advisors &amp; Liaisons
p219
aVHarvard College Hellenic Society
p220
aVHarvard Hillel
p221
aVHarvard Hong Kong Society
p222
aVHonor Council
p223
aVHarvard Undergraduate HOSA, Future Health Professionals
p224
aVHouse and Neighborhood Development
p225
aVHarvard-Radcliffe Dramatic Club
p226
aVHarvard Undergraduate BGLTQ Business Society (HUBBS)
p227
aVHarvard College Human Powered Vehicle Team
p228
aVHarvard College Human Rights Review
p229
aVHumans of Harvard College
p230
aVHarvard Undergraduate Television
p231
aVHyperion Shakespeare Company
p232
aVIDENTITIES Fashion Show
p233
aVHarvard College iGEM
p234
aVImmediate Gratification Players
p235
aVHarvard College Impact Investing Group
p236
aVHarvard Undergraduate IMUSE U.S.-China Student Exchange
p237
aVIndigo Peer Counseling
p238
aVInstitute of Politics
p239
aVHarvard Intercollegiate Model United Nations
p240
aVHarvard Undergraduate Interdisciplinary Immunology Club
p241
aVHarvard College Interfaith Forum
p242
aVHarvard College International Negotiation Program
p243
aVHarvard International Relations on Campus
p244
aVHarvard International Review
p245
aVHarvard Investment Association
p246
aVHarvard College Iranian Association
p247
aVHarvard Islamic Society
p248
aVHarvard College Italian Society
p249
aVIvy Council
p250
aVHarvard College Japan Initiative
p251
aVHarvard Japan Society
p252
aVThe Harvard University Jazz Bands
p253
aVThe John Adams Society: A Harvard College Debating Society
p254
aVHarvard College Juggling Society
p255
aVKali Praxi
p256
aVPBHA&#39;s Keylatch Afterschool Program
p257
aVPBHA&#39;s Keylatch Mentor Program
p258
aVPBHA&#39;s Keylatch Summer Program
p259
aVKhmer Student Association
p260
aVKidney Disease Screening and Awareness Program
p261
aVPBHA&#39;s Kids with Special Needs Achievement Program
p262
aVHarvard Korean Association
p263
aVHarvard College Korean International Student Association
p264
aVThe Kuumba Singers of Harvard College
p265
aVLa Vie Club
p266
aVThe Harvard Lampoon
p267
aVLatinas Unidas de Harvard College
p268
aVHarvard College Latino Men&#39;s Collective
p269
aVHarvard College Latinos in Health Careers
p270
aVHarvard Undergraduate Latinxs in Finance &amp; Technology
p271
aVHarvard Latter-day Saint Student Association
p272
aVHarvard College Law Society
p273
aVPBHA&#39;s LEADERS! Summer Program
p274
aVPBHA&#39;s LEADERS! Term
p275
aVLeadership Institute at Harvard College
p276
aVHarvard Libertarian Club
p277
aVThe Lowell House Opera Society
p278
aVLowell House Society of Russian Bell Ringers at Harvard College
p279
aVThe Harvard LowKeys
p280
aVMakeHarvardCollege
p281
aVMinority Association of Premedical Students (MAPS)
p282
aVMariachi Veritas de Harvard
p283
aVHarvard Undergraduate Marketing Group
p284
aVHarvard Undergraduate Mathematics Association
p285
aVHarvard College Medical Humanities Forum
p286
aVHarvard College Meditation Club
p287
aVHarvard Undergraduate MENA Conference
p288
aVHarvard College Mentors for Urban Debate
p289
aVMinority Association of Premedical Students
p290
aVPBHA Mission Hill Afterschool Program
p291
aVPBHA&#39;s Mission Hill Summer Program
p292
aVPBHA&#39;s Mission Mentor
p293
aVHarvard Mock Trial Association
p294
aVHarvard Model Congress
p295
aVHarvard Model Congress Asia
p296
aVHarvard Model Congress Europe
p297
aVModel Congress Latin America (MCLA)
p298
aVHarvard College Model Congress Middle East
p299
aVHarvard Model Congress San Francisco
p300
aVModel Security Council
p301
aVHarvard Model United Nations
p302
aVHarvard-Radcliffe Modern Dance Company
p303
aVHarvard Mountaineering Club
p304
aVHarvard-Radcliffe Mozart Society Orchestra
p305
aVMusic in Hospitals and Nursing Homes Using Entertainment as Therapy
p306
aVHarvard College Musical Theater
p307
aVHarvard National Model United Nations
p308
aVHarvard SEAS National Society of Black Engineers (NSBE)
p309
aVPBHA&#39;s Native American Youth Education Mentor Program (NAYEP Mentor)
p310
aVPBHA&#39;s Native American Youth Enrichment Program Summer
p311
aVNative Americans at Harvard College
p312
aVHarvard College Nepali Students Association (NeSA)
p313
aVNetwork of Enlightened Women (NeW) at Harvard College
p314
aVHarvard College Nigerian Students Association
p315
aVThe Noteables
p316
aVHarvard College Numismatic Association
p317
aVOmo Naija Dance Troupe
p318
aVOn Harvard Time
p319
aVOn Thin Ice
p320
aVHarvard College Open Campus Initiative
p321
aVOpen Data Project
p322
aVHarvard College Opera Society
p323
aVHarvard Opportunes
p324
aVHarvard Organ Society
p325
aVOrganization of Asian American Sisters in Service
p326
aVOrthodox Christian Fellowship of Harvard College
p327
aVHarvard Outing Club, Inc.
p328
aVPadan Aram
p329
aVHarvard College Pakistani Students Association
p330
aVHarvard College Palestine Solidarity Committee
p331
aVHarvard Undergraduate Pan-Asian Council
p332
aVPBHA&#39;s Partners Empowering Neighborhoods
p333
aVHarvard College Partners in Health Engage
p334
aVPassus: Harvard College Step Team
p335
aVPBHA&#39;s Women&#39;s Empowerment and Prison Education Program
p336
aVHarvard Undergraduate Association of Pediatric Pals
p337
aVPBHA&#39;s Peer Health Exchange
p338
aVPERIOD at Harvard College
p339
aVPBHA&#39;s Pets as Therapy
p340
aVHarvard Philippine Forum
p341
aVPhillips Brooks House Association
p342
aVHarvard College Photography Club
p343
aVHarvard College Piano Society
p344
aVThe Pleiades Society
p345
aVHarvard College Polish Society
p346
aVHarvard Undergraduate Political Consulting
p347
aVHarvard Political Review
p348
aVHarvard Pops Orchestra
p349
aVPotential Magazine
p350
aVHarvard Pre-Medical Society
p351
aVHarvard College Pre-Veterinary Society
p352
aVHarvard Program for International Education
p353
aVHarvard College Progressive Jewish Alliance
p354
aVHarvard Project for Asian and International Relations
p355
aVHarvard College Project for Justice
p356
aVQuad Sound Studios
p357
aVQueer Undergraduate Athletes Do Sports
p358
aVHarvard College Queer Students and Allies
p359
aVRadcliffe Choral Society
p360
aVThe Radcliffe Pitches
p361
aVRadcliffe Union of Students
p362
aVHarvard College Raftaar
p363
aVHarvard/Radcliffe RAZA
p364
aVHarvard College Real Estate Club
p365
aVHarvard Undergraduate Real Estate Investment Group
p366
aVPBHA&#39;s Recent Immigrant Term-Time Enrichment
p367
aVRecreational Experience and Arts Creativity with Harvard
p368
aVHarvard College Friends of the Red Cross
p369
aVPBHA&#39;s Refugee Youth Summer Enrichment
p370
aVHarvard College Reprojustice Action &amp; Dialogue Collective
p371
aVHarvard Republican Club
p372
aVHarvard Reserve Officer Training Corps Association
p373
aVResponse
p374
aVHarvard Right to Life
p375
aVThe River Charles Ensemble
p376
aVRoad to Recovery
p377
aVHarvard Undergraduate Robotics Club
p378
aVHarvard Undergraduate Rock Review
p379
aVHarvard Undergraduate Rock, Paper, Scissors Club
p380
aVHarvard Romanian Association
p381
aVRoom 13
p382
aVPBHA&#39;s Roxbury Youth Initiative Summer
p383
aVPBHA&#39;s Roxbury Youth Initiative Term
p384
aVHarvard College Rural Health Association
p385
aVHarvard College Russian Speakers Association
p386
aVThe Sab Club
p387
aVSatire V
p388
aVHarvard College Students for Scholars at Risk
p389
aVHarvard-Radcliffe Science Fiction Association
p390
aVHarvard Undergraduate Science of Psychedelics Club
p391
aVHarvard Undergraduate Science Olympiad
p392
aVHarvard Science Review
p393
aVHarvard College Scientista
p394
aVSeneca Inc.
p395
aVSenior Class Committee
p396
aVHarvard College Seventh-day Adventist Fellowship (HCSDAF)
p397
aVSexual Health Awareness &amp; Relationship Communication (SHARC)
p398
aVSexual Health Education &amp; Advocacy throughout Harvard College
p399
aVHarvard College SHADE
p400
aVSACH: Harvard Undergraduate Sikh Student Association
p401
aVSingapore, Indonesia and Malaysia Association
p402
aVHarvard Undergraduate Slavic Finance and Technology Association
p403
aVPBHA&#39;s Harvard Small Claims Advisory Service
p404
aVSmart Woman Securities
p405
aVHarvard College Social Enterprise Association
p406
aVHarvard College Social Innovation Collaborative
p407
aVHarvard Undergraduate Society for Ethical Leadership
p408
aVSociety for Food Allergy and Intolerance Awareness
p409
aVHarvard Society for Mind, Brain, and Behavior
p410
aVHarvard College Society for the Cinematic Arts
p411
aVHarvard Society of Arab Students
p412
aVHarvard Society of Black Scientists and Engineers
p413
aVHarvard SEAS Society of Hispanic Engineers (SHPE)
p414
aVHarvard-Radcliffe Society of Physics Students
p415
aVHarvard SEAS Society of Women Engineers (SWE)
p416
aVSomali Student Association
p417
aVHarvard College SoulFood Christian Fellowship
p418
aVSouth African Society
p419
aVHarvard South Asian Association
p420
aVSouth Asian Men&#39;s Collective
p421
aVSouth Asian Music Association
p422
aVSouth Asian Women&#39;s Collective
p423
aVPBHA&#39;s South Boston Afteschool Program
p424
aVPBHA&#39;s South Boston Outreach Summer
p425
aVHarvard College South Slavic Society
p426
aVSoutherners Organizing Urgent Transformation Through Harvard College
p427
aVHarvard Undergraduate Spanish Association
p428
aVHarvard College Speak Out Loud
p429
aVHarvard College Special Olympics
p430
aVHarvard College Sports Analysis Collective
p431
aVHarvard College Stand-Up Comic Society
p432
aVHarvard College Stem Cell Society
p433
aVHarvard Undergraduate Strategy and Wargaming Society
p434
aVSTRIVE
p435
aVPBHA&#39;s Strong Women, Strong Girls
p436
aVHarvard Undergraduate Student Art Collective
p437
aVStudent Astronomers at Harvard-Radcliffe
p438
aVPBHA&#39;s Student Labor Action Movement
p439
aVStudent Mental Health Liaisons (SMHL)
p440
aVHarvard S.T.A.G.E. - Student Theater Advancing Growth &amp; Empowerment
p441
aVHarvard Students for Israel
p442
aVHarvard College Students for the Exploration and Development of Space (SEDS)
p443
aVHarvard College Students in Mental Health Research
p444
aVStudio Art Society
p445
aVPBHA&#39;s Suffolk Prison Education
p446
aVHarvard Undergraduate Surf Club
p447
aVHarvard College Swiss Club
p448
aVHarvard Undergraduate Taiwan Leadership Conference
p449
aVHarvard Taiwanese Cultural Society
p450
aVTAMID Israel Investment Group
p451
aVTAPS
p452
aVTask Force on Asian and Pacific American Studies at Harvard College
p453
aVTeam HBV at Harvard College
p454
aVHarvard College TEATRO!
p455
aVHarvard Undergraduate Technology Review
p456
aVTEDxHarvard College
p457
aVHarvard Undergraduate Telugu Society
p458
aVTempus: The Harvard College History Review
p459
aVTexas Club of Harvard
p460
aVHarvard Thai Society
p461
aVThe Harvard Advocate
p462
aVThe Aleph
p463
aVThe Harvard Crimson
p464
aVThe Fleur-de-Lis Club
p465
aVThe Harvard Callbacks
p466
aVThe Harvard Krokodiloes, Inc.
p467
aVThe Harvard Undergraduate Research Journal
p468
aVThe Harvard Ichthus
p469
aVIC Corporation
p470
aVThe Harvard Independent
p471
aVThe KS
p472
aVThe Oak Club
p473
aVHarvard Review of Philosophy
p474
aVThe Seneca, Inc.
p475
aVThe Spee Club
p476
aVTheta ZX
p477
aVThree Letter Acronym
p478
aVThe Harvard Undergraduate Drummers (THUD)
p479
aVHarvard College Tuesday Magazine
p480
aVHarvard College Turkish Student Association
p481
aVHarvard&#39;s Under Construction
p482
aVHarvard Undergraduate Alumni Connection
p483
aVHarvard Undergraduate Council
p484
aVHarvard Undergraduate Fellowship
p485
aVPBHA&#39;s Undergraduate Legal Committee
p486
aVHarvard College Undergraduate Research Association
p487
aVHarvard Undergraduate UNICEF Club
p488
aVUnited World Club at Harvard College
p489
aVHarvard University Choir
p490
aVHarvard College US-India Initiative
p491
aVHarvard Undergraduate Venture Capital Group
p492
aVHarvard College Ventures
p493
aVVeritas Financial Group
p494
aVHarvard-Radcliffe Veritones
p495
aVHarvard College Veritutor Writing Helpline
p496
aVHarvard College Video Game Development Club
p497
aVHarvard Vietnamese Association
p498
aVHarvard College VISION Global Health Society (VISION).
p499
aVHarvard Undergraduate Voters Choose
p500
aVWalking Association
p501
aVHarvard Radio Broadcasting, Inc
p502
aVHarvard Wind Ensemble
p503
aVHarvard College Wine Society
p504
aVHarvard College Wireless Club
p505
aVWomen of Color Collective
p506
aVHarvard Undergraduate Women In Business
p507
aVHarvard Undergraduate Women in Computer Science
p508
aVWomen In Law Association
p509
aVWomen in Nature Network
p510
aVWomen In Science at Harvard-Radcliffe
p511
aVHarvard-Radcliffe Women&#39;s Leadership Project
p512
aVWoodbridge International Society
p513
aVHarvard World Model United Nations
p514
aVHarvard College Writers&#39; Workshop
p515
aVWriting and Public Service Initiative (WPSI) at Harvard College
p516
aVPBHA&#39;s Y2Y (Young Adults Uniting to End Homelessness)
p517
aVHarvard Yearbook Publications, Inc.
p518
aVPBHA&#39;s Youth Recreation Program- HOOPs
p519
a.